target datalayout = "e-m:e-p270:32:32-p271:32:32-p272:64:64-i64:64-i128:128-f80:128-n8:16:32:64-S128"
target triple = "x86_64-pc-linux-gnu"

%struct._zval_struct = type { %union._zend_value, %union.anon, %union.anon.2 }
%union._zend_value = type { i64 }
%union.anon = type { i32 }
%union.anon.2 = type { i32 }
%struct._zend_refcounted_h = type { i32, %union.anon.3 }
%union.anon.3 = type { i32 }
%struct._zend_execute_data = type { ptr, ptr, ptr, ptr, %struct._zval_struct, ptr, ptr, ptr, ptr }
%struct._zend_object = type { %struct._zend_refcounted_h, i32, ptr, ptr, ptr, [1 x %struct._zval_struct] }
%struct._php_random_algo_with_state = type { ptr, ptr }
%struct._php_random_randomizer = type { %struct._php_random_algo_with_state, i8, %struct._zend_object }
%struct.anon.0 = type { i8, i8, %union.anon.1 }
%union.anon.1 = type { i16 }

; Function Attrs: nounwind uwtable
define internal ptr @php_random_randomizer_from_obj(ptr noundef %0) #0 {
  %2 = alloca ptr, align 8
  store ptr %0, ptr %2, align 8
  %3 = load ptr, ptr %2, align 8
  %4 = getelementptr inbounds i8, ptr %3, i64 -24
  ret ptr %4
}

; Function Attrs: nounwind uwtable
define hidden void @zim_Random_Randomizer___serialize(ptr noundef %0, ptr noundef %1) #0 {
  %3 = alloca ptr, align 8
  %4 = alloca ptr, align 8
  %5 = alloca ptr, align 8
  %6 = alloca ptr, align 8
  %7 = alloca ptr, align 8
  %8 = alloca %struct._zval_struct, align 8
  %9 = alloca ptr, align 8
  %10 = alloca ptr, align 8
  %11 = alloca ptr, align 8
  %12 = alloca ptr, align 8
  store ptr %0, ptr %5, align 8
  store ptr %1, ptr %6, align 8
  %13 = load ptr, ptr %5, align 8
  %14 = getelementptr inbounds %struct._zend_execute_data, ptr %13, i32 0, i32 4
  %15 = getelementptr inbounds %struct._zval_struct, ptr %14, i32 0, i32 0
  %16 = load ptr, ptr %15, align 8
  %17 = call ptr @php_random_randomizer_from_obj(ptr noundef %16)
  store ptr %17, ptr %7, align 8
  br label %18

18:                                               ; preds = %2
  %19 = load ptr, ptr %5, align 8
  %20 = getelementptr inbounds %struct._zend_execute_data, ptr %19, i32 0, i32 4
  %21 = getelementptr inbounds %struct._zval_struct, ptr %20, i32 0, i32 2
  %22 = load i32, ptr %21, align 4
  %23 = icmp ne i32 %22, 0
  %24 = xor i1 %23, true
  %25 = xor i1 %24, true
  %26 = zext i1 %25 to i32
  %27 = sext i32 %26 to i64
  %28 = icmp ne i64 %27, 0
  br i1 %28, label %29, label %30

29:                                               ; preds = %18
  call void @zend_wrong_parameters_none_error()
  br label %75

30:                                               ; preds = %18
  br label %31

31:                                               ; preds = %30
  br label %32

32:                                               ; preds = %31
  %33 = call ptr @_zend_new_array_0()
  store ptr %33, ptr %9, align 8
  %34 = load ptr, ptr %6, align 8
  store ptr %34, ptr %10, align 8
  %35 = load ptr, ptr %9, align 8
  %36 = load ptr, ptr %10, align 8
  %37 = getelementptr inbounds %struct._zval_struct, ptr %36, i32 0, i32 0
  store ptr %35, ptr %37, align 8
  %38 = load ptr, ptr %10, align 8
  %39 = getelementptr inbounds %struct._zval_struct, ptr %38, i32 0, i32 1
  store i32 775, ptr %39, align 8
  br label %40

40:                                               ; preds = %32
  br label %41

41:                                               ; preds = %40
  %42 = load ptr, ptr %7, align 8
  %43 = getelementptr inbounds %struct._php_random_randomizer, ptr %42, i32 0, i32 2
  %44 = call ptr @zend_std_get_properties(ptr noundef %43)
  store ptr %44, ptr %11, align 8
  store ptr %8, ptr %12, align 8
  %45 = load ptr, ptr %11, align 8
  %46 = load ptr, ptr %12, align 8
  %47 = getelementptr inbounds %struct._zval_struct, ptr %46, i32 0, i32 0
  store ptr %45, ptr %47, align 8
  %48 = load ptr, ptr %12, align 8
  %49 = getelementptr inbounds %struct._zval_struct, ptr %48, i32 0, i32 1
  store i32 775, ptr %49, align 8
  br label %50

50:                                               ; preds = %41
  br label %51

51:                                               ; preds = %50
  %52 = getelementptr inbounds %struct._zval_struct, ptr %8, i32 0, i32 1
  %53 = getelementptr inbounds %struct.anon.0, ptr %52, i32 0, i32 1
  %54 = load i8, ptr %53, align 1
  %55 = zext i8 %54 to i32
  %56 = icmp ne i32 %55, 0
  br i1 %56, label %57, label %69

57:                                               ; preds = %51
  store ptr %8, ptr %4, align 8
  %58 = load ptr, ptr %4, align 8
  %59 = getelementptr inbounds %struct._zval_struct, ptr %58, i32 0, i32 1
  %60 = getelementptr inbounds %struct.anon.0, ptr %59, i32 0, i32 1
  %61 = load i8, ptr %60, align 1
  %62 = zext i8 %61 to i32
  %63 = icmp ne i32 %62, 0
  call void @llvm.assume(i1 %63)
  %64 = load ptr, ptr %4, align 8
  %65 = load ptr, ptr %64, align 8
  store ptr %65, ptr %3, align 8
  %66 = load ptr, ptr %3, align 8
  %67 = load i32, ptr %66, align 4
  %68 = add i32 %67, 1
  store i32 %68, ptr %66, align 4
  br label %69

69:                                               ; preds = %57, %51
  br label %70

70:                                               ; preds = %69
  %71 = load ptr, ptr %6, align 8
  %72 = getelementptr inbounds %struct._zval_struct, ptr %71, i32 0, i32 0
  %73 = load ptr, ptr %72, align 8
  %74 = call ptr @zend_hash_next_index_insert(ptr noundef %73, ptr noundef %8)
  br label %75

75:                                               ; preds = %70, %29
  ret void
}