; Function Attrs: nounwind uwtable
define hidden void @zim_Random_Randomizer___serialize(ptr nocapture noundef readonly %0, ptr nocapture noundef %1) local_unnamed_addr #0 {
  %3 = alloca %struct._zval_struct, align 8
  %4 = getelementptr inbounds i8, ptr %0, i64 44
  %5 = load i32, ptr %4, align 4
  %.not = icmp eq i32 %5, 0
  br i1 %.not, label %7, label %6

6:                                                ; preds = %2
  tail call void @zend_wrong_parameters_none_error() #7
  br label %18

7:                                                ; preds = %2
  %8 = getelementptr inbounds i8, ptr %0, i64 32
  %9 = load ptr, ptr %8, align 8
  %10 = tail call ptr @_zend_new_array_0() #7
  store ptr %10, ptr %1, align 8
  %11 = getelementptr inbounds i8, ptr %1, i64 8
  store i32 775, ptr %11, align 8
  %12 = tail call ptr @zend_std_get_properties(ptr noundef nonnull %9) #7
  store ptr %12, ptr %3, align 8
  %13 = getelementptr inbounds i8, ptr %3, i64 8
  store i32 775, ptr %13, align 8
  %14 = load i32, ptr %12, align 4
  %15 = add i32 %14, 1
  store i32 %15, ptr %12, align 4
  %16 = load ptr, ptr %1, align 8
  %17 = call ptr @zend_hash_next_index_insert(ptr noundef %16, ptr noundef nonnull %3) #7
  br label %18

18:                                               ; preds = %7, %6
  ret void
}